; ModuleID = 'source-C-CXX/2/2066.c'
source_filename = "source-C-CXX/2/2066.c"
target datalayout = "e-m:e-p270:32:32-p271:32:32-p272:64:64-i64:64-f80:128-n8:16:32:64-S128"
target triple = "x86_64-pc-linux-gnu"

@.str = private unnamed_addr constant [6 x i8] c"%d %d\00", align 1
@.str.1 = private unnamed_addr constant [3 x i8] c"%d\00", align 1
@.str.2 = private unnamed_addr constant [4 x i8] c"yes\00", align 1
@.str.3 = private unnamed_addr constant [3 x i8] c"no\00", align 1

; Function Attrs: nofree nounwind sspstrong uwtable
define dso_local i32 @main() local_unnamed_addr #0 {
  %1 = alloca i32, align 4
  %2 = alloca i32, align 4
  %3 = alloca [1000 x i32], align 16
  %4 = bitcast i32* %1 to i8*
  call void @llvm.lifetime.start.p0i8(i64 4, i8* nonnull %4) #3
  %5 = bitcast i32* %2 to i8*
  call void @llvm.lifetime.start.p0i8(i64 4, i8* nonnull %5) #3
  %6 = bitcast [1000 x i32]* %3 to i8*
  call void @llvm.lifetime.start.p0i8(i64 4000, i8* nonnull %6) #3
  %7 = call i32 (i8*, ...) @__isoc99_scanf(i8* getelementptr inbounds ([6 x i8], [6 x i8]* @.str, i64 0, i64 0), i32* nonnull %1, i32* nonnull %2)
  %8 = load i32, i32* %1, align 4, !tbaa !5
  %9 = icmp sgt i32 %8, 0
  br i1 %9, label %12, label %67

10:                                               ; preds = %12
  %11 = icmp sgt i32 %17, 0
  br i1 %11, label %20, label %67

12:                                               ; preds = %0, %12
  %13 = phi i64 [ %16, %12 ], [ 0, %0 ]
  %14 = getelementptr inbounds [1000 x i32], [1000 x i32]* %3, i64 0, i64 %13
  %15 = call i32 (i8*, ...) @__isoc99_scanf(i8* getelementptr inbounds ([3 x i8], [3 x i8]* @.str.1, i64 0, i64 0), i32* nonnull %14)
  %16 = add nuw nsw i64 %13, 1
  %17 = load i32, i32* %1, align 4, !tbaa !5
  %18 = sext i32 %17 to i64
  %19 = icmp slt i64 %16, %18
  br i1 %19, label %12, label %10, !llvm.loop !9

20:                                               ; preds = %10, %53
  %21 = phi i64 [ %54, %53 ], [ 0, %10 ]
  %22 = phi i32 [ %56, %53 ], [ %17, %10 ]
  %23 = phi i32 [ %55, %53 ], [ 0, %10 ]
  %24 = load i32, i32* %2, align 4, !tbaa !5
  %25 = getelementptr inbounds [1000 x i32], [1000 x i32]* %3, i64 0, i64 %21
  %26 = load i32, i32* %25, align 4, !tbaa !5
  %27 = sub nsw i32 %24, %26
  %28 = icmp sgt i32 %22, 0
  br i1 %28, label %29, label %44

29:                                               ; preds = %20
  %30 = zext i32 %22 to i64
  br label %31

31:                                               ; preds = %29, %41
  %32 = phi i64 [ 0, %29 ], [ %42, %41 ]
  %33 = icmp eq i64 %32, %21
  br i1 %33, label %41, label %34

34:                                               ; preds = %31
  %35 = getelementptr inbounds [1000 x i32], [1000 x i32]* %3, i64 0, i64 %32
  %36 = load i32, i32* %35, align 4, !tbaa !5
  %37 = icmp eq i32 %36, %27
  br i1 %37, label %38, label %41

38:                                               ; preds = %34
  %39 = trunc i64 %32 to i32
  %40 = call i32 (i8*, ...) @printf(i8* nonnull dereferenceable(1) getelementptr inbounds ([4 x i8], [4 x i8]* @.str.2, i64 0, i64 0))
  br label %44

41:                                               ; preds = %34, %31
  %42 = add nuw nsw i64 %32, 1
  %43 = icmp eq i64 %42, %30
  br i1 %43, label %44, label %31, !llvm.loop !11

44:                                               ; preds = %41, %20, %38
  %45 = phi i32 [ %39, %38 ], [ 0, %20 ], [ %22, %41 ]
  %46 = zext i32 %45 to i64
  %47 = getelementptr inbounds [1000 x i32], [1000 x i32]* %3, i64 0, i64 %46
  %48 = load i32, i32* %47, align 4, !tbaa !5
  %49 = icmp eq i32 %48, %27
  br i1 %49, label %50, label %53

50:                                               ; preds = %44
  %51 = trunc i64 %21 to i32
  %52 = load i32, i32* %1, align 4, !tbaa !5
  br label %59

53:                                               ; preds = %44
  %54 = add nuw nsw i64 %21, 1
  %55 = add nuw nsw i32 %23, 1
  %56 = load i32, i32* %1, align 4, !tbaa !5
  %57 = sext i32 %56 to i64
  %58 = icmp slt i64 %54, %57
  br i1 %58, label %20, label %59, !llvm.loop !12

59:                                               ; preds = %53, %50
  %60 = phi i32 [ %52, %50 ], [ %56, %53 ]
  %61 = phi i32 [ %51, %50 ], [ %55, %53 ]
  %62 = icmp eq i32 %61, %60
  %63 = icmp eq i32 %45, %60
  %64 = select i1 %62, i1 %63, i1 false
  br i1 %64, label %65, label %67

65:                                               ; preds = %59
  %66 = call i32 (i8*, ...) @printf(i8* nonnull dereferenceable(1) getelementptr inbounds ([3 x i8], [3 x i8]* @.str.3, i64 0, i64 0))
  br label %67

67:                                               ; preds = %0, %10, %65, %59
  %68 = call i32 (i8*, ...) @__isoc99_scanf(i8* getelementptr inbounds ([3 x i8], [3 x i8]* @.str.1, i64 0, i64 0), i32* nonnull %1)
  call void @llvm.lifetime.end.p0i8(i64 4000, i8* nonnull %6) #3
  call void @llvm.lifetime.end.p0i8(i64 4, i8* nonnull %5) #3
  call void @llvm.lifetime.end.p0i8(i64 4, i8* nonnull %4) #3
  ret i32 0
}

; Function Attrs: argmemonly mustprogress nofree nosync nounwind willreturn
declare void @llvm.lifetime.start.p0i8(i64 immarg, i8* nocapture) #1

; Function Attrs: nofree nounwind
declare noundef i32 @__isoc99_scanf(i8* nocapture noundef readonly, ...) local_unnamed_addr #2

; Function Attrs: nofree nounwind
declare noundef i32 @printf(i8* nocapture noundef readonly, ...) local_unnamed_addr #2

; Function Attrs: argmemonly mustprogress nofree nosync nounwind willreturn
declare void @llvm.lifetime.end.p0i8(i64 immarg, i8* nocapture) #1


!llvm.module.flags = !{!0, !1, !2, !3}
!llvm.ident = !{!4}

!0 = !{i32 1, !"wchar_size", i32 4}
!1 = !{i32 7, !"PIC Level", i32 2}
!2 = !{i32 7, !"PIE Level", i32 2}
!3 = !{i32 7, !"uwtable", i32 1}
!4 = !{!"clang version 13.0.0"}
!5 = !{!6, !6, i64 0}
!6 = !{!"int", !7, i64 0}
!7 = !{!"omnipotent char", !8, i64 0}
!8 = !{!"Simple C/C++ TBAA"}
!9 = distinct !{!9, !10}
!10 = !{!"llvm.loop.mustprogress"}
!11 = distinct !{!11, !10}
!12 = distinct !{!12, !10}
